target datalayout = "e-m:e-p270:32:32-p271:32:32-p272:64:64-i64:64-i128:128-f80:128-n8:16:32:64-S128"
target triple = "x86_64-pc-linux-gnu"

%struct.hwloc_infos_s = type { ptr, i32, i32 }
%struct.hwloc_obj = type { i32, ptr, i32, ptr, i64, ptr, i32, i32, ptr, ptr, ptr, i32, ptr, ptr, i32, ptr, ptr, ptr, i32, i32, ptr, i32, ptr, i32, ptr, ptr, ptr, ptr, ptr, %struct.hwloc_infos_s, ptr, i64 }
%struct.hwloc_location = type { i32, %union.hwloc_location_u }
%union.hwloc_location_u = type { ptr }

; Function Attrs: inlinehint nounwind uwtable
define internal i32 @match_local_obj_cpuset(ptr noundef %0, ptr noundef %1, i64 noundef %2) #4 {
  %4 = alloca i32, align 4
  %5 = alloca ptr, align 8
  %6 = alloca ptr, align 8
  %7 = alloca i64, align 8
  store ptr %0, ptr %5, align 8, !tbaa !83
  store ptr %1, ptr %6, align 8, !tbaa !108
  store i64 %2, ptr %7, align 8, !tbaa !37
  %8 = load i64, ptr %7, align 8, !tbaa !37
  %9 = and i64 %8, 4
  %10 = icmp ne i64 %9, 0
  br i1 %10, label %11, label %12

11:                                               ; preds = %3
  store i32 1, ptr %4, align 4
  br label %42

12:                                               ; preds = %3
  %13 = load i64, ptr %7, align 8, !tbaa !37
  %14 = and i64 %13, 1
  %15 = icmp ne i64 %14, 0
  br i1 %15, label %16, label %24

16:                                               ; preds = %12
  %17 = load ptr, ptr %6, align 8, !tbaa !108
  %18 = load ptr, ptr %5, align 8, !tbaa !83
  %19 = getelementptr inbounds nuw %struct.hwloc_obj, ptr %18, i32 0, i32 25
  %20 = load ptr, ptr %19, align 8, !tbaa !91
  %21 = call i32 @hwloc_bitmap_isincluded(ptr noundef %17, ptr noundef %20) #15
  %22 = icmp ne i32 %21, 0
  br i1 %22, label %23, label %24

23:                                               ; preds = %16
  store i32 1, ptr %4, align 4
  br label %42

24:                                               ; preds = %16, %12
  %25 = load i64, ptr %7, align 8, !tbaa !37
  %26 = and i64 %25, 2
  %27 = icmp ne i64 %26, 0
  br i1 %27, label %28, label %36

28:                                               ; preds = %24
  %29 = load ptr, ptr %5, align 8, !tbaa !83
  %30 = getelementptr inbounds nuw %struct.hwloc_obj, ptr %29, i32 0, i32 25
  %31 = load ptr, ptr %30, align 8, !tbaa !91
  %32 = load ptr, ptr %6, align 8, !tbaa !108
  %33 = call i32 @hwloc_bitmap_isincluded(ptr noundef %31, ptr noundef %32) #15
  %34 = icmp ne i32 %33, 0
  br i1 %34, label %35, label %36

35:                                               ; preds = %28
  store i32 1, ptr %4, align 4
  br label %42

36:                                               ; preds = %28, %24
  %37 = load ptr, ptr %5, align 8, !tbaa !83
  %38 = getelementptr inbounds nuw %struct.hwloc_obj, ptr %37, i32 0, i32 25
  %39 = load ptr, ptr %38, align 8, !tbaa !91
  %40 = load ptr, ptr %6, align 8, !tbaa !108
  %41 = call i32 @hwloc_bitmap_isequal(ptr noundef %39, ptr noundef %40) #15
  store i32 %41, ptr %4, align 4
  br label %42

42:                                               ; preds = %36, %35, %23, %11
  %43 = load i32, ptr %4, align 4
  ret i32 %43
}

; Function Attrs: inlinehint nounwind willreturn memory(read) uwtable
define internal ptr @hwloc_get_obj_by_type(ptr noundef %0, i32 noundef %1, i32 noundef %2) #10 {
  %4 = alloca ptr, align 8
  %5 = alloca ptr, align 8
  %6 = alloca i32, align 4
  %7 = alloca i32, align 4
  %8 = alloca i32, align 4
  %9 = alloca i32, align 4
  store ptr %0, ptr %5, align 8, !tbaa !3
  store i32 %1, ptr %6, align 4, !tbaa !45
  store i32 %2, ptr %7, align 4, !tbaa !45
  call void @llvm.lifetime.start.p0(i64 4, ptr %8) #14
  %10 = load ptr, ptr %5, align 8, !tbaa !3
  %11 = load i32, ptr %6, align 4, !tbaa !45
  %12 = call i32 @hwloc_get_type_depth(ptr noundef %10, i32 noundef %11)
  store i32 %12, ptr %8, align 4, !tbaa !45
  %13 = load i32, ptr %8, align 4, !tbaa !45
  %14 = icmp eq i32 %13, -1
  br i1 %14, label %15, label %16

15:                                               ; preds = %3
  store ptr null, ptr %4, align 8
  store i32 1, ptr %9, align 4
  br label %25

16:                                               ; preds = %3
  %17 = load i32, ptr %8, align 4, !tbaa !45
  %18 = icmp eq i32 %17, -2
  br i1 %18, label %19, label %20

19:                                               ; preds = %16
  store ptr null, ptr %4, align 8
  store i32 1, ptr %9, align 4
  br label %25

20:                                               ; preds = %16
  %21 = load ptr, ptr %5, align 8, !tbaa !3
  %22 = load i32, ptr %8, align 4, !tbaa !45
  %23 = load i32, ptr %7, align 4, !tbaa !45
  %24 = call ptr @hwloc_get_obj_by_depth(ptr noundef %21, i32 noundef %22, i32 noundef %23) #15
  store ptr %24, ptr %4, align 8
  store i32 1, ptr %9, align 4
  br label %25

25:                                               ; preds = %20, %19, %15
  call void @llvm.lifetime.end.p0(i64 4, ptr %8) #14
  %26 = load ptr, ptr %4, align 8
  ret ptr %26
}

; Function Attrs: nounwind uwtable
define i32 @hwloc_get_local_numanode_objs(ptr noundef %0, ptr noundef %1, ptr noundef %2, ptr noundef %3, i64 noundef %4) #0 {
  %6 = alloca i32, align 4
  %7 = alloca ptr, align 8
  %8 = alloca ptr, align 8
  %9 = alloca ptr, align 8
  %10 = alloca ptr, align 8
  %11 = alloca i64, align 8
  %12 = alloca ptr, align 8
  %13 = alloca ptr, align 8
  %14 = alloca i32, align 4
  %15 = alloca i32, align 4
  %16 = alloca ptr, align 8
  store ptr %0, ptr %7, align 8, !tbaa !3
  store ptr %1, ptr %8, align 8, !tbaa !79
  store ptr %2, ptr %9, align 8, !tbaa !69
  store ptr %3, ptr %10, align 8, !tbaa !81
  store i64 %4, ptr %11, align 8, !tbaa !37
  call void @llvm.lifetime.start.p0(i64 8, ptr %12) #14
  call void @llvm.lifetime.start.p0(i64 8, ptr %13) #14
  call void @llvm.lifetime.start.p0(i64 4, ptr %14) #14
  %17 = load i64, ptr %11, align 8, !tbaa !37
  %18 = and i64 %17, -8
  %19 = icmp ne i64 %18, 0
  br i1 %19, label %20, label %22

20:                                               ; preds = %5
  %21 = call ptr @__errno_location() #16
  store i32 22, ptr %21, align 4, !tbaa !45
  store i32 -1, ptr %6, align 4
  store i32 1, ptr %15, align 4
  br label %114

22:                                               ; preds = %5
  %23 = load ptr, ptr %9, align 8, !tbaa !69
  %24 = icmp ne ptr %23, null
  br i1 %24, label %25, label %32

25:                                               ; preds = %22
  %26 = load ptr, ptr %9, align 8, !tbaa !69
  %27 = load i32, ptr %26, align 4, !tbaa !45
  %28 = icmp ne i32 %27, 0
  br i1 %28, label %29, label %34

29:                                               ; preds = %25
  %30 = load ptr, ptr %10, align 8, !tbaa !81
  %31 = icmp ne ptr %30, null
  br i1 %31, label %34, label %32

32:                                               ; preds = %29, %22
  %33 = call ptr @__errno_location() #16
  store i32 22, ptr %33, align 4, !tbaa !45
  store i32 -1, ptr %6, align 4
  store i32 1, ptr %15, align 4
  br label %114

34:                                               ; preds = %29, %25
  %35 = load ptr, ptr %8, align 8, !tbaa !79
  %36 = icmp ne ptr %35, null
  br i1 %36, label %44, label %37

37:                                               ; preds = %34
  %38 = load i64, ptr %11, align 8, !tbaa !37
  %39 = and i64 %38, 4
  %40 = icmp ne i64 %39, 0
  br i1 %40, label %43, label %41

41:                                               ; preds = %37
  %42 = call ptr @__errno_location() #16
  store i32 22, ptr %42, align 4, !tbaa !45
  store i32 -1, ptr %6, align 4
  store i32 1, ptr %15, align 4
  br label %114

43:                                               ; preds = %37
  store ptr null, ptr %12, align 8, !tbaa !108
  br label %80

44:                                               ; preds = %34
  %45 = load ptr, ptr %8, align 8, !tbaa !79
  %46 = getelementptr inbounds nuw %struct.hwloc_location, ptr %45, i32 0, i32 0
  %47 = load i32, ptr %46, align 8, !tbaa !102
  %48 = icmp eq i32 %47, 1
  br i1 %48, label %49, label %53

49:                                               ; preds = %44
  %50 = load ptr, ptr %8, align 8, !tbaa !79
  %51 = getelementptr inbounds nuw %struct.hwloc_location, ptr %50, i32 0, i32 1
  %52 = load ptr, ptr %51, align 8, !tbaa !63
  store ptr %52, ptr %12, align 8, !tbaa !108
  br label %79

53:                                               ; preds = %44
  %54 = load ptr, ptr %8, align 8, !tbaa !79
  %55 = getelementptr inbounds nuw %struct.hwloc_location, ptr %54, i32 0, i32 0
  %56 = load i32, ptr %55, align 8, !tbaa !102
  %57 = icmp eq i32 %56, 0
  br i1 %57, label %58, label %76

58:                                               ; preds = %53
  call void @llvm.lifetime.start.p0(i64 8, ptr %16) #14
  %59 = load ptr, ptr %8, align 8, !tbaa !79
  %60 = getelementptr inbounds nuw %struct.hwloc_location, ptr %59, i32 0, i32 1
  %61 = load ptr, ptr %60, align 8, !tbaa !63
  store ptr %61, ptr %16, align 8, !tbaa !83
  br label %62

62:                                               ; preds = %68, %58
  %63 = load ptr, ptr %16, align 8, !tbaa !83
  %64 = getelementptr inbounds nuw %struct.hwloc_obj, ptr %63, i32 0, i32 25
  %65 = load ptr, ptr %64, align 8, !tbaa !91
  %66 = icmp ne ptr %65, null
  %67 = xor i1 %66, true
  br i1 %67, label %68, label %72

68:                                               ; preds = %62
  %69 = load ptr, ptr %16, align 8, !tbaa !83
  %70 = getelementptr inbounds nuw %struct.hwloc_obj, ptr %69, i32 0, i32 10
  %71 = load ptr, ptr %70, align 8, !tbaa !109
  store ptr %71, ptr %16, align 8, !tbaa !83
  br label %62, !llvm.loop !110

72:                                               ; preds = %62
  %73 = load ptr, ptr %16, align 8, !tbaa !83
  %74 = getelementptr inbounds nuw %struct.hwloc_obj, ptr %73, i32 0, i32 25
  %75 = load ptr, ptr %74, align 8, !tbaa !91
  store ptr %75, ptr %12, align 8, !tbaa !108
  call void @llvm.lifetime.end.p0(i64 8, ptr %16) #14
  br label %78

76:                                               ; preds = %53
  %77 = call ptr @__errno_location() #16
  store i32 22, ptr %77, align 4, !tbaa !45
  store i32 -1, ptr %6, align 4
  store i32 1, ptr %15, align 4
  br label %114

78:                                               ; preds = %72
  br label %79

79:                                               ; preds = %78, %49
  br label %80

80:                                               ; preds = %79, %43
  store i32 0, ptr %14, align 4, !tbaa !45
  %81 = load ptr, ptr %7, align 8, !tbaa !3
  %82 = call ptr @hwloc_get_obj_by_type(ptr noundef %81, i32 noundef 14, i32 noundef 0) #15
  store ptr %82, ptr %13, align 8, !tbaa !83
  br label %83

83:                                               ; preds = %107, %80
  %84 = load ptr, ptr %13, align 8, !tbaa !83
  %85 = icmp ne ptr %84, null
  br i1 %85, label %86, label %111

86:                                               ; preds = %83
  %87 = load ptr, ptr %13, align 8, !tbaa !83
  %88 = load ptr, ptr %12, align 8, !tbaa !108
  %89 = load i64, ptr %11, align 8, !tbaa !37
  %90 = call i32 @match_local_obj_cpuset(ptr noundef %87, ptr noundef %88, i64 noundef %89)
  %91 = icmp ne i32 %90, 0
  br i1 %91, label %93, label %92

92:                                               ; preds = %86
  br label %107

93:                                               ; preds = %86
  %94 = load i32, ptr %14, align 4, !tbaa !45
  %95 = load ptr, ptr %9, align 8, !tbaa !69
  %96 = load i32, ptr %95, align 4, !tbaa !45
  %97 = icmp ult i32 %94, %96
  br i1 %97, label %98, label %104

98:                                               ; preds = %93
  %99 = load ptr, ptr %13, align 8, !tbaa !83
  %100 = load ptr, ptr %10, align 8, !tbaa !81
  %101 = load i32, ptr %14, align 4, !tbaa !45
  %102 = zext i32 %101 to i64
  %103 = getelementptr inbounds nuw ptr, ptr %100, i64 %102
  store ptr %99, ptr %103, align 8, !tbaa !83
  br label %104

104:                                              ; preds = %98, %93
  %105 = load i32, ptr %14, align 4, !tbaa !45
  %106 = add i32 %105, 1
  store i32 %106, ptr %14, align 4, !tbaa !45
  br label %107

107:                                              ; preds = %104, %92
  %108 = load ptr, ptr %13, align 8, !tbaa !83
  %109 = getelementptr inbounds nuw %struct.hwloc_obj, ptr %108, i32 0, i32 8
  %110 = load ptr, ptr %109, align 8, !tbaa !111
  store ptr %110, ptr %13, align 8, !tbaa !83
  br label %83, !llvm.loop !112

111:                                              ; preds = %83
  %112 = load i32, ptr %14, align 4, !tbaa !45
  %113 = load ptr, ptr %9, align 8, !tbaa !69
  store i32 %112, ptr %113, align 4, !tbaa !45
  store i32 0, ptr %6, align 4
  store i32 1, ptr %15, align 4
  br label %114

114:                                              ; preds = %111, %76, %41, %32, %20
  call void @llvm.lifetime.end.p0(i64 4, ptr %14) #14
  call void @llvm.lifetime.end.p0(i64 8, ptr %13) #14
  call void @llvm.lifetime.end.p0(i64 8, ptr %12) #14
  %115 = load i32, ptr %6, align 4
  ret i32 %115
}