; Function Attrs: nounwind uwtable
define range(i32 -1, 1) i32 @hwloc_get_local_numanode_objs(ptr noundef %0, ptr noundef readonly captures(address_is_null) %1, ptr noundef captures(address_is_null) %2, ptr noundef writeonly captures(address_is_null) %3, i64 noundef %4) local_unnamed_addr #3 {
  %.not = icmp ult i64 %4, 8
  br i1 %.not, label %8, label %6

6:                                                ; preds = %5
  %7 = tail call ptr @__errno_location() #31
  store i32 22, ptr %7, align 4, !tbaa !60
  br label %97

8:                                                ; preds = %5
  %.not35 = icmp eq ptr %2, null
  br i1 %.not35, label %13, label %9

9:                                                ; preds = %8
  %10 = load i32, ptr %2, align 4, !tbaa !60
  %11 = icmp eq i32 %10, 0
  %12 = icmp ne ptr %3, null
  %or.cond = or i1 %12, %11
  br i1 %or.cond, label %15, label %13

13:                                               ; preds = %9, %8
  %14 = tail call ptr @__errno_location() #31
  store i32 22, ptr %14, align 4, !tbaa !60
  br label %97

15:                                               ; preds = %9
  %.not36 = icmp eq ptr %1, null
  br i1 %.not36, label %16, label %19

16:                                               ; preds = %15
  %.not37 = icmp samesign ult i64 %4, 4
  br i1 %.not37, label %17, label %.loopexit

17:                                               ; preds = %16
  %18 = tail call ptr @__errno_location() #31
  store i32 22, ptr %18, align 4, !tbaa !60
  br label %97

19:                                               ; preds = %15
  %20 = load i32, ptr %1, align 8, !tbaa !89
  switch i32 %20, label %30 [
    i32 1, label %21
    i32 0, label %24
  ]

21:                                               ; preds = %19
  %22 = getelementptr inbounds nuw i8, ptr %1, i64 8
  %23 = load ptr, ptr %22, align 8, !tbaa !48
  br label %.loopexit

24:                                               ; preds = %19
  %25 = getelementptr inbounds nuw i8, ptr %1, i64 8
  br label %26

26:                                               ; preds = %26, %24
  %.0.in = phi ptr [ %25, %24 ], [ %29, %26 ]
  %.0 = load ptr, ptr %.0.in, align 8, !tbaa !48
  %27 = getelementptr inbounds nuw i8, ptr %.0, i64 184
  %28 = load ptr, ptr %27, align 8, !tbaa !81
  %.not38 = icmp eq ptr %28, null
  %29 = getelementptr inbounds nuw i8, ptr %.0, i64 72
  br i1 %.not38, label %26, label %.loopexit, !llvm.loop !99

30:                                               ; preds = %19
  %31 = tail call ptr @__errno_location() #31
  store i32 22, ptr %31, align 4, !tbaa !60
  br label %97

.loopexit:                                        ; preds = %26, %16, %21
  %.030 = phi ptr [ %23, %21 ], [ null, %16 ], [ %28, %26 ]
  %32 = tail call i32 @hwloc_get_type_depth(ptr noundef %0, i32 noundef 14) #29
  %switch.i = icmp ugt i32 %32, -3
  br i1 %switch.i, label %._crit_edge, label %hwloc_get_obj_by_type.exit

hwloc_get_obj_by_type.exit:                       ; preds = %.loopexit
  %33 = tail call ptr @hwloc_get_obj_by_depth(ptr noundef %0, i32 noundef %32, i32 noundef 0) #30
  %.not3944 = icmp eq ptr %33, null
  br i1 %.not3944, label %._crit_edge, label %.lr.ph

.lr.ph:                                           ; preds = %hwloc_get_obj_by_type.exit
  %.not.i = icmp ult i64 %4, 4
  %.not11.i = icmp ult i64 %4, 2
  br i1 %.not.i, label %.lr.ph.split.us, label %.lr.ph.split

.lr.ph.split.us:                                  ; preds = %.lr.ph
  %34 = and i64 %4, 1
  %.not9.i = icmp eq i64 %34, 0
  br i1 %.not9.i, label %.lr.ph.split.us.split.us, label %.lr.ph.split.us.split

.lr.ph.split.us.split.us:                         ; preds = %.lr.ph.split.us
  br i1 %.not11.i, label %match_local_obj_cpuset.exit.us.us.us, label %.lr.ph.split.us.split.us.split

match_local_obj_cpuset.exit.us.us.us:             ; preds = %.lr.ph.split.us.split.us, %43
  %.02847.us.us.us = phi i32 [ %.1.us.us.us, %43 ], [ 0, %.lr.ph.split.us.split.us ]
  %.02945.us.us.us = phi ptr [ %45, %43 ], [ %33, %.lr.ph.split.us.split.us ]
  %.phi.trans.insert.i.us.us.us = getelementptr inbounds nuw i8, ptr %.02945.us.us.us, i64 184
  %.pre.i.us.us.us = load ptr, ptr %.phi.trans.insert.i.us.us.us, align 8, !tbaa !81
  %35 = tail call i32 @hwloc_bitmap_isequal(ptr noundef %.pre.i.us.us.us, ptr noundef readonly %.030) #30
  %.not40.us.us.us = icmp eq i32 %35, 0
  br i1 %.not40.us.us.us, label %43, label %match_local_obj_cpuset.exit.thread.us.us.us

match_local_obj_cpuset.exit.thread.us.us.us:      ; preds = %match_local_obj_cpuset.exit.us.us.us
  %36 = load i32, ptr %2, align 4, !tbaa !60
  %37 = icmp ult i32 %.02847.us.us.us, %36
  br i1 %37, label %38, label %41

38:                                               ; preds = %match_local_obj_cpuset.exit.thread.us.us.us
  %39 = zext i32 %.02847.us.us.us to i64
  %40 = getelementptr inbounds nuw ptr, ptr %3, i64 %39
  store ptr %.02945.us.us.us, ptr %40, align 8, !tbaa !80
  br label %41

41:                                               ; preds = %38, %match_local_obj_cpuset.exit.thread.us.us.us
  %42 = add i32 %.02847.us.us.us, 1
  br label %43

43:                                               ; preds = %41, %match_local_obj_cpuset.exit.us.us.us
  %.1.us.us.us = phi i32 [ %42, %41 ], [ %.02847.us.us.us, %match_local_obj_cpuset.exit.us.us.us ]
  %44 = getelementptr inbounds nuw i8, ptr %.02945.us.us.us, i64 56
  %45 = load ptr, ptr %44, align 8, !tbaa !73
  %.not39.us.us.us = icmp eq ptr %45, null
  br i1 %.not39.us.us.us, label %._crit_edge, label %match_local_obj_cpuset.exit.us.us.us, !llvm.loop !100

.lr.ph.split.us.split.us.split:                   ; preds = %.lr.ph.split.us.split.us, %55
  %.02847.us.us = phi i32 [ %.1.us.us, %55 ], [ 0, %.lr.ph.split.us.split.us ]
  %.02945.us.us = phi ptr [ %57, %55 ], [ %33, %.lr.ph.split.us.split.us ]
  %.phi.trans.insert.i.us.us = getelementptr inbounds nuw i8, ptr %.02945.us.us, i64 184
  %.pre.i.us.us = load ptr, ptr %.phi.trans.insert.i.us.us, align 8, !tbaa !81
  %46 = tail call i32 @hwloc_bitmap_isincluded(ptr noundef %.pre.i.us.us, ptr noundef readonly %.030) #30
  %.not12.i.us.us = icmp eq i32 %46, 0
  br i1 %.not12.i.us.us, label %match_local_obj_cpuset.exit.us.us, label %match_local_obj_cpuset.exit.thread.us.us

match_local_obj_cpuset.exit.us.us:                ; preds = %.lr.ph.split.us.split.us.split
  %47 = tail call i32 @hwloc_bitmap_isequal(ptr noundef %.pre.i.us.us, ptr noundef readonly %.030) #30
  %.not40.us.us = icmp eq i32 %47, 0
  br i1 %.not40.us.us, label %55, label %match_local_obj_cpuset.exit.thread.us.us

match_local_obj_cpuset.exit.thread.us.us:         ; preds = %match_local_obj_cpuset.exit.us.us, %.lr.ph.split.us.split.us.split
  %48 = load i32, ptr %2, align 4, !tbaa !60
  %49 = icmp ult i32 %.02847.us.us, %48
  br i1 %49, label %50, label %53

50:                                               ; preds = %match_local_obj_cpuset.exit.thread.us.us
  %51 = zext i32 %.02847.us.us to i64
  %52 = getelementptr inbounds nuw ptr, ptr %3, i64 %51
  store ptr %.02945.us.us, ptr %52, align 8, !tbaa !80
  br label %53

53:                                               ; preds = %50, %match_local_obj_cpuset.exit.thread.us.us
  %54 = add i32 %.02847.us.us, 1
  br label %55

55:                                               ; preds = %53, %match_local_obj_cpuset.exit.us.us
  %.1.us.us = phi i32 [ %54, %53 ], [ %.02847.us.us, %match_local_obj_cpuset.exit.us.us ]
  %56 = getelementptr inbounds nuw i8, ptr %.02945.us.us, i64 56
  %57 = load ptr, ptr %56, align 8, !tbaa !73
  %.not39.us.us = icmp eq ptr %57, null
  br i1 %.not39.us.us, label %._crit_edge, label %.lr.ph.split.us.split.us.split, !llvm.loop !100

.lr.ph.split.us.split:                            ; preds = %.lr.ph.split.us
  br i1 %.not11.i, label %.lr.ph.split.us.split.split.us, label %.lr.ph.split.us.split.split

.lr.ph.split.us.split.split.us:                   ; preds = %.lr.ph.split.us.split, %69
  %.02847.us.us49 = phi i32 [ %.1.us.us56, %69 ], [ 0, %.lr.ph.split.us.split ]
  %.02945.us.us50 = phi ptr [ %71, %69 ], [ %33, %.lr.ph.split.us.split ]
  %58 = getelementptr inbounds nuw i8, ptr %.02945.us.us50, i64 184
  %59 = load ptr, ptr %58, align 8, !tbaa !81
  %60 = tail call i32 @hwloc_bitmap_isincluded(ptr noundef readonly %.030, ptr noundef %59) #30
  %.not10.i.us.us = icmp eq i32 %60, 0
  br i1 %.not10.i.us.us, label %match_local_obj_cpuset.exit.us.us53, label %match_local_obj_cpuset.exit.thread.us.us55

match_local_obj_cpuset.exit.us.us53:              ; preds = %.lr.ph.split.us.split.split.us
  %61 = tail call i32 @hwloc_bitmap_isequal(ptr noundef %59, ptr noundef readonly %.030) #30
  %.not40.us.us54 = icmp eq i32 %61, 0
  br i1 %.not40.us.us54, label %69, label %match_local_obj_cpuset.exit.thread.us.us55

match_local_obj_cpuset.exit.thread.us.us55:       ; preds = %match_local_obj_cpuset.exit.us.us53, %.lr.ph.split.us.split.split.us
  %62 = load i32, ptr %2, align 4, !tbaa !60
  %63 = icmp ult i32 %.02847.us.us49, %62
  br i1 %63, label %64, label %67

64:                                               ; preds = %match_local_obj_cpuset.exit.thread.us.us55
  %65 = zext i32 %.02847.us.us49 to i64
  %66 = getelementptr inbounds nuw ptr, ptr %3, i64 %65
  store ptr %.02945.us.us50, ptr %66, align 8, !tbaa !80
  br label %67

67:                                               ; preds = %64, %match_local_obj_cpuset.exit.thread.us.us55
  %68 = add i32 %.02847.us.us49, 1
  br label %69

69:                                               ; preds = %67, %match_local_obj_cpuset.exit.us.us53
  %.1.us.us56 = phi i32 [ %68, %67 ], [ %.02847.us.us49, %match_local_obj_cpuset.exit.us.us53 ]
  %70 = getelementptr inbounds nuw i8, ptr %.02945.us.us50, i64 56
  %71 = load ptr, ptr %70, align 8, !tbaa !73
  %.not39.us.us57 = icmp eq ptr %71, null
  br i1 %.not39.us.us57, label %._crit_edge, label %.lr.ph.split.us.split.split.us, !llvm.loop !100

.lr.ph.split.us.split.split:                      ; preds = %.lr.ph.split.us.split, %85
  %.02847.us = phi i32 [ %.1.us, %85 ], [ 0, %.lr.ph.split.us.split ]
  %.02945.us = phi ptr [ %87, %85 ], [ %33, %.lr.ph.split.us.split ]
  %72 = getelementptr inbounds nuw i8, ptr %.02945.us, i64 184
  %73 = load ptr, ptr %72, align 8, !tbaa !81
  %74 = tail call i32 @hwloc_bitmap_isincluded(ptr noundef readonly %.030, ptr noundef %73) #30
  %.not10.i.us = icmp eq i32 %74, 0
  br i1 %.not10.i.us, label %75, label %match_local_obj_cpuset.exit.thread.us

75:                                               ; preds = %.lr.ph.split.us.split.split
  %76 = tail call i32 @hwloc_bitmap_isincluded(ptr noundef %73, ptr noundef readonly %.030) #30
  %.not12.i.us = icmp eq i32 %76, 0
  br i1 %.not12.i.us, label %match_local_obj_cpuset.exit.us, label %match_local_obj_cpuset.exit.thread.us

match_local_obj_cpuset.exit.us:                   ; preds = %75
  %77 = tail call i32 @hwloc_bitmap_isequal(ptr noundef %73, ptr noundef readonly %.030) #30
  %.not40.us = icmp eq i32 %77, 0
  br i1 %.not40.us, label %85, label %match_local_obj_cpuset.exit.thread.us

match_local_obj_cpuset.exit.thread.us:            ; preds = %match_local_obj_cpuset.exit.us, %75, %.lr.ph.split.us.split.split
  %78 = load i32, ptr %2, align 4, !tbaa !60
  %79 = icmp ult i32 %.02847.us, %78
  br i1 %79, label %80, label %83

80:                                               ; preds = %match_local_obj_cpuset.exit.thread.us
  %81 = zext i32 %.02847.us to i64
  %82 = getelementptr inbounds nuw ptr, ptr %3, i64 %81
  store ptr %.02945.us, ptr %82, align 8, !tbaa !80
  br label %83

83:                                               ; preds = %80, %match_local_obj_cpuset.exit.thread.us
  %84 = add i32 %.02847.us, 1
  br label %85

85:                                               ; preds = %83, %match_local_obj_cpuset.exit.us
  %.1.us = phi i32 [ %84, %83 ], [ %.02847.us, %match_local_obj_cpuset.exit.us ]
  %86 = getelementptr inbounds nuw i8, ptr %.02945.us, i64 56
  %87 = load ptr, ptr %86, align 8, !tbaa !73
  %.not39.us = icmp eq ptr %87, null
  br i1 %.not39.us, label %._crit_edge, label %.lr.ph.split.us.split.split, !llvm.loop !100

.lr.ph.split:                                     ; preds = %.lr.ph
  %88 = load i32, ptr %2, align 4, !tbaa !60
  br label %match_local_obj_cpuset.exit.thread

match_local_obj_cpuset.exit.thread:               ; preds = %.lr.ph.split, %93
  %.02847 = phi i32 [ 0, %.lr.ph.split ], [ %94, %93 ]
  %.02945 = phi ptr [ %33, %.lr.ph.split ], [ %96, %93 ]
  %89 = icmp ult i32 %.02847, %88
  br i1 %89, label %90, label %93

90:                                               ; preds = %match_local_obj_cpuset.exit.thread
  %91 = zext i32 %.02847 to i64
  %92 = getelementptr inbounds nuw ptr, ptr %3, i64 %91
  store ptr %.02945, ptr %92, align 8, !tbaa !80
  br label %93

93:                                               ; preds = %90, %match_local_obj_cpuset.exit.thread
  %94 = add i32 %.02847, 1
  %95 = getelementptr inbounds nuw i8, ptr %.02945, i64 56
  %96 = load ptr, ptr %95, align 8, !tbaa !73
  %.not39 = icmp eq ptr %96, null
  br i1 %.not39, label %._crit_edge, label %match_local_obj_cpuset.exit.thread, !llvm.loop !100

._crit_edge:                                      ; preds = %93, %85, %69, %55, %43, %.loopexit, %hwloc_get_obj_by_type.exit
  %.028.lcssa = phi i32 [ 0, %hwloc_get_obj_by_type.exit ], [ 0, %.loopexit ], [ %.1.us.us.us, %43 ], [ %.1.us.us, %55 ], [ %.1.us.us56, %69 ], [ %.1.us, %85 ], [ %94, %93 ]
  store i32 %.028.lcssa, ptr %2, align 4, !tbaa !60
  br label %97

97:                                               ; preds = %._crit_edge, %30, %17, %13, %6
  %.031 = phi i32 [ -1, %6 ], [ 0, %._crit_edge ], [ -1, %30 ], [ -1, %17 ], [ -1, %13 ]
  ret i32 %.031
}